; Function Attrs: mustprogress nounwind uwtable
define hidden void @_ZN16DefNewGeneration26remove_forwarding_pointersEv(ptr noundef nonnull align 8 dereferenceable(744) %0) local_unnamed_addr #0 align 2 {
  %2 = alloca %struct.ResetForwardedMarkWord, align 8
  store ptr getelementptr inbounds inrange(-16, 8) (i8, ptr @_ZTVZN16DefNewGeneration26remove_forwarding_pointersEvE22ResetForwardedMarkWord, i64 16), ptr %2, align 8
  %3 = getelementptr inbounds i8, ptr %0, i64 672
  %4 = load ptr, ptr %3, align 8
  call void @_ZN15ContiguousSpace14object_iterateEP13ObjectClosure(ptr noundef nonnull align 8 dereferenceable(24) %4, ptr noundef nonnull %2) #19
  %5 = getelementptr inbounds i8, ptr %0, i64 680
  %6 = load ptr, ptr %5, align 8
  call void @_ZN15ContiguousSpace14object_iterateEP13ObjectClosure(ptr noundef nonnull align 8 dereferenceable(24) %6, ptr noundef nonnull %2) #19
  %7 = load ptr, ptr %0, align 8
  %8 = getelementptr inbounds i8, ptr %7, i64 112
  %9 = load ptr, ptr %8, align 8
  call void %9(ptr noundef nonnull align 8 dereferenceable(744) %0) #19
  ret void
}